target datalayout = "e-m:e-p270:32:32-p271:32:32-p272:64:64-i64:64-i128:128-f80:128-n8:16:32:64-S128"
target triple = "x86_64-pc-linux-gnu"

@.str.47 = private unnamed_addr constant [16 x i8] c"%12.4e %12.4e \0A\00", align 1
@.str.48 = private unnamed_addr constant [48 x i8] c"                                               \00", align 1
@.str.49 = private unnamed_addr constant [74 x i8] c"                                ----------------------------------------\0A\00", align 1
@.str.50 = private unnamed_addr constant [48 x i8] c"                                Sensitivity 1  \00", align 1
@.str.51 = private unnamed_addr constant [48 x i8] c"                                Sensitivity 2  \00", align 1

; Function Attrs: nounwind uwtable
define internal void @PrintOutputS(ptr noundef %0) #0 {
  %2 = alloca ptr, align 8
  %3 = alloca ptr, align 8
  store ptr %0, ptr %2, align 8, !tbaa !15
  call void @llvm.lifetime.start.p0(i64 8, ptr %3) #8
  %4 = load ptr, ptr %2, align 8, !tbaa !15
  %5 = getelementptr inbounds ptr, ptr %4, i64 0
  %6 = load ptr, ptr %5, align 8, !tbaa !17
  %7 = call ptr @N_VGetArrayPointer(ptr noundef %6)
  store ptr %7, ptr %3, align 8, !tbaa !11
  %8 = call i32 (ptr, ...) @printf(ptr noundef @.str.49)
  %9 = call i32 (ptr, ...) @printf(ptr noundef @.str.50)
  %10 = load ptr, ptr %3, align 8, !tbaa !11
  %11 = getelementptr inbounds double, ptr %10, i64 0
  %12 = load double, ptr %11, align 8, !tbaa !28
  %13 = load ptr, ptr %3, align 8, !tbaa !11
  %14 = getelementptr inbounds double, ptr %13, i64 448
  %15 = load double, ptr %14, align 8, !tbaa !28
  %16 = call i32 (ptr, ...) @printf(ptr noundef @.str.47, double noundef %12, double noundef %15)
  %17 = call i32 (ptr, ...) @printf(ptr noundef @.str.48)
  %18 = load ptr, ptr %3, align 8, !tbaa !11
  %19 = getelementptr inbounds double, ptr %18, i64 1
  %20 = load double, ptr %19, align 8, !tbaa !28
  %21 = load ptr, ptr %3, align 8, !tbaa !11
  %22 = getelementptr inbounds double, ptr %21, i64 449
  %23 = load double, ptr %22, align 8, !tbaa !28
  %24 = call i32 (ptr, ...) @printf(ptr noundef @.str.47, double noundef %20, double noundef %23)
  %25 = load ptr, ptr %2, align 8, !tbaa !15
  %26 = getelementptr inbounds ptr, ptr %25, i64 1
  %27 = load ptr, ptr %26, align 8, !tbaa !17
  %28 = call ptr @N_VGetArrayPointer(ptr noundef %27)
  store ptr %28, ptr %3, align 8, !tbaa !11
  %29 = call i32 (ptr, ...) @printf(ptr noundef @.str.49)
  %30 = call i32 (ptr, ...) @printf(ptr noundef @.str.51)
  %31 = load ptr, ptr %3, align 8, !tbaa !11
  %32 = getelementptr inbounds double, ptr %31, i64 0
  %33 = load double, ptr %32, align 8, !tbaa !28
  %34 = load ptr, ptr %3, align 8, !tbaa !11
  %35 = getelementptr inbounds double, ptr %34, i64 448
  %36 = load double, ptr %35, align 8, !tbaa !28
  %37 = call i32 (ptr, ...) @printf(ptr noundef @.str.47, double noundef %33, double noundef %36)
  %38 = call i32 (ptr, ...) @printf(ptr noundef @.str.48)
  %39 = load ptr, ptr %3, align 8, !tbaa !11
  %40 = getelementptr inbounds double, ptr %39, i64 1
  %41 = load double, ptr %40, align 8, !tbaa !28
  %42 = load ptr, ptr %3, align 8, !tbaa !11
  %43 = getelementptr inbounds double, ptr %42, i64 449
  %44 = load double, ptr %43, align 8, !tbaa !28
  %45 = call i32 (ptr, ...) @printf(ptr noundef @.str.47, double noundef %41, double noundef %44)
  call void @llvm.lifetime.end.p0(i64 8, ptr %3) #8
  ret void
}