; Function Attrs: nounwind uwtable
define internal fastcc void @PrintOutputS(ptr noundef readonly captures(none) %0) unnamed_addr #0 {
  %2 = load ptr, ptr %0, align 8, !tbaa !31
  %3 = tail call ptr @N_VGetArrayPointer(ptr noundef %2) #11
  %puts = tail call i32 @puts(ptr nonnull dereferenceable(1) @str.7)
  %4 = tail call i32 (ptr, ...) @printf(ptr noundef nonnull dereferenceable(1) @.str.50)
  %5 = load double, ptr %3, align 8, !tbaa !24
  %6 = getelementptr inbounds nuw i8, ptr %3, i64 3584
  %7 = load double, ptr %6, align 8, !tbaa !24
  %8 = tail call i32 (ptr, ...) @printf(ptr noundef nonnull dereferenceable(1) @.str.47, double noundef %5, double noundef %7)
  %9 = tail call i32 (ptr, ...) @printf(ptr noundef nonnull dereferenceable(1) @.str.48)
  %10 = getelementptr inbounds nuw i8, ptr %3, i64 8
  %11 = load double, ptr %10, align 8, !tbaa !24
  %12 = getelementptr inbounds nuw i8, ptr %3, i64 3592
  %13 = load double, ptr %12, align 8, !tbaa !24
  %14 = tail call i32 (ptr, ...) @printf(ptr noundef nonnull dereferenceable(1) @.str.47, double noundef %11, double noundef %13)
  %15 = getelementptr inbounds nuw i8, ptr %0, i64 8
  %16 = load ptr, ptr %15, align 8, !tbaa !31
  %17 = tail call ptr @N_VGetArrayPointer(ptr noundef %16) #11
  %puts10 = tail call i32 @puts(ptr nonnull dereferenceable(1) @str.7)
  %18 = tail call i32 (ptr, ...) @printf(ptr noundef nonnull dereferenceable(1) @.str.51)
  %19 = load double, ptr %17, align 8, !tbaa !24
  %20 = getelementptr inbounds nuw i8, ptr %17, i64 3584
  %21 = load double, ptr %20, align 8, !tbaa !24
  %22 = tail call i32 (ptr, ...) @printf(ptr noundef nonnull dereferenceable(1) @.str.47, double noundef %19, double noundef %21)
  %23 = tail call i32 (ptr, ...) @printf(ptr noundef nonnull dereferenceable(1) @.str.48)
  %24 = getelementptr inbounds nuw i8, ptr %17, i64 8
  %25 = load double, ptr %24, align 8, !tbaa !24
  %26 = getelementptr inbounds nuw i8, ptr %17, i64 3592
  %27 = load double, ptr %26, align 8, !tbaa !24
  %28 = tail call i32 (ptr, ...) @printf(ptr noundef nonnull dereferenceable(1) @.str.47, double noundef %25, double noundef %27)
  ret void
}